; Function Attrs: mustprogress nofree norecurse nosync nounwind willreturn memory(read, inaccessiblemem: none) uwtable
define dso_local noundef zeroext i1 @_ZNK4llvm10BasicBlock12isEntryBlockEv(ptr noundef nonnull readonly align 8 dereferenceable(80) %0) local_unnamed_addr #4 align 2 {
  %2 = getelementptr inbounds nuw i8, ptr %0, i64 72
  %3 = load ptr, ptr %2, align 8
  %4 = getelementptr inbounds nuw i8, ptr %3, i64 80
  %5 = load ptr, ptr %4, align 8
  %6 = icmp ne ptr %5, null
  %7 = getelementptr inbounds i8, ptr %5, i64 -24
  %8 = icmp eq ptr %7, %0
  %9 = select i1 %6, i1 %8, i1 false
  ret i1 %9
}